target datalayout = "e-m:e-p270:32:32-p271:32:32-p272:64:64-i64:64-i128:128-f80:128-n8:16:32:64-S128"
target triple = "x86_64-pc-linux-gnu"

@.str.76 = private unnamed_addr constant [24 x i8] c"unknown defined type %d\00", align 1

; Function Attrs: nounwind sspstrong uwtable
define dso_local i64 @rb_iseq_defined_string(i32 noundef %0) #0 {
  %2 = alloca i32, align 4
  %3 = alloca ptr, align 8
  store i32 %0, ptr %2, align 4, !tbaa !56
  call void @llvm.lifetime.start.p0(i64 8, ptr %3) #24
  %4 = load i32, ptr %2, align 4, !tbaa !56
  %5 = sub i32 %4, 1
  %6 = icmp uge i32 %5, 14
  br i1 %6, label %7, label %9

7:                                                ; preds = %1
  %8 = load i32, ptr %2, align 4, !tbaa !56
  call void (ptr, ...) @rb_bug(ptr noundef @.str.76, i32 noundef %8) #30
  unreachable

9:                                                ; preds = %1
  %10 = load i32, ptr %2, align 4, !tbaa !56
  %11 = sub i32 %10, 1
  %12 = zext i32 %11 to i64
  %13 = getelementptr [14 x [18 x i8]], ptr @rb_iseq_defined_string.expr_names, i64 0, i64 %12
  %14 = getelementptr inbounds [18 x i8], ptr %13, i64 0, i64 0
  store ptr %14, ptr %3, align 8, !tbaa !137
  br i1 false, label %15, label %20

15:                                               ; preds = %9
  %16 = load ptr, ptr %3, align 8, !tbaa !137
  %17 = load ptr, ptr %3, align 8, !tbaa !137
  %18 = call i64 @strlen(ptr noundef %17) #25
  %19 = call i64 @rb_fstring_new(ptr noundef %16, i64 noundef %18)
  br label %23

20:                                               ; preds = %9
  %21 = load ptr, ptr %3, align 8, !tbaa !137
  %22 = call i64 @rb_fstring_cstr(ptr noundef %21)
  br label %23

23:                                               ; preds = %20, %15
  %24 = phi i64 [ %19, %15 ], [ %22, %20 ]
  call void @llvm.lifetime.end.p0(i64 8, ptr %3) #24
  ret i64 %24
}