; Function Attrs: nounwind sspstrong uwtable
define dso_local i64 @rb_iseq_defined_string(i32 noundef %0) local_unnamed_addr #0 {
  %2 = add i32 %0, -1
  %3 = icmp ugt i32 %2, 13
  br i1 %3, label %4, label %5

4:                                                ; preds = %1
  tail call void (ptr, ...) @rb_bug(ptr noundef nonnull @.str.76, i32 noundef %0) #23
  unreachable

5:                                                ; preds = %1
  %6 = zext nneg i32 %2 to i64
  %7 = getelementptr [14 x [18 x i8]], ptr @rb_iseq_defined_string.expr_names, i64 0, i64 %6
  %8 = tail call i64 @rb_fstring_cstr(ptr noundef %7) #20
  ret i64 %8
}